target datalayout = "e-m:e-p270:32:32-p271:32:32-p272:64:64-i64:64-i128:128-f80:128-n8:16:32:64-S128"
target triple = "x86_64-pc-linux-gnu"

%struct.FT_Vector_ = type { i64, i64 }
%struct.FT_StrokeBorderRec_ = type { i32, i32, ptr, ptr, i8, i32, ptr, i8 }

; Function Attrs: nounwind uwtable
define internal i32 @ft_stroke_border_grow(ptr noundef %0, i32 noundef %1) #0 {
  %3 = alloca ptr, align 8
  %4 = alloca i32, align 4
  %5 = alloca i32, align 4
  %6 = alloca i32, align 4
  %7 = alloca i32, align 4
  %8 = alloca i32, align 4
  %9 = alloca ptr, align 8
  store ptr %0, ptr %3, align 8
  store i32 %1, ptr %4, align 4
  %10 = load ptr, ptr %3, align 8
  %11 = getelementptr inbounds %struct.FT_StrokeBorderRec_, ptr %10, i32 0, i32 1
  %12 = load i32, ptr %11, align 4
  store i32 %12, ptr %5, align 4
  %13 = load ptr, ptr %3, align 8
  %14 = getelementptr inbounds %struct.FT_StrokeBorderRec_, ptr %13, i32 0, i32 0
  %15 = load i32, ptr %14, align 8
  %16 = load i32, ptr %4, align 4
  %17 = add i32 %15, %16
  store i32 %17, ptr %6, align 4
  store i32 0, ptr %7, align 4
  %18 = load i32, ptr %6, align 4
  %19 = load i32, ptr %5, align 4
  %20 = icmp ugt i32 %18, %19
  br i1 %20, label %21, label %69

21:                                               ; preds = %2
  %22 = load i32, ptr %5, align 4
  store i32 %22, ptr %8, align 4
  %23 = load ptr, ptr %3, align 8
  %24 = getelementptr inbounds %struct.FT_StrokeBorderRec_, ptr %23, i32 0, i32 6
  %25 = load ptr, ptr %24, align 8
  store ptr %25, ptr %9, align 8
  br label %26

26:                                               ; preds = %30, %21
  %27 = load i32, ptr %8, align 4
  %28 = load i32, ptr %6, align 4
  %29 = icmp ult i32 %27, %28
  br i1 %29, label %30, label %36

30:                                               ; preds = %26
  %31 = load i32, ptr %8, align 4
  %32 = lshr i32 %31, 1
  %33 = add i32 %32, 16
  %34 = load i32, ptr %8, align 4
  %35 = add i32 %34, %33
  store i32 %35, ptr %8, align 4
  br label %26, !llvm.loop !20

36:                                               ; preds = %26
  %37 = load ptr, ptr %9, align 8
  %38 = load i32, ptr %5, align 4
  %39 = zext i32 %38 to i64
  %40 = load i32, ptr %8, align 4
  %41 = zext i32 %40 to i64
  %42 = load ptr, ptr %3, align 8
  %43 = getelementptr inbounds %struct.FT_StrokeBorderRec_, ptr %42, i32 0, i32 2
  %44 = load ptr, ptr %43, align 8
  %45 = call ptr @ft_mem_realloc(ptr noundef %37, i64 noundef 16, i64 noundef %39, i64 noundef %41, ptr noundef %44, ptr noundef %7)
  %46 = load ptr, ptr %3, align 8
  %47 = getelementptr inbounds %struct.FT_StrokeBorderRec_, ptr %46, i32 0, i32 2
  store ptr %45, ptr %47, align 8
  %48 = load i32, ptr %7, align 4
  %49 = icmp ne i32 %48, 0
  br i1 %49, label %64, label %50

50:                                               ; preds = %36
  %51 = load ptr, ptr %9, align 8
  %52 = load i32, ptr %5, align 4
  %53 = zext i32 %52 to i64
  %54 = load i32, ptr %8, align 4
  %55 = zext i32 %54 to i64
  %56 = load ptr, ptr %3, align 8
  %57 = getelementptr inbounds %struct.FT_StrokeBorderRec_, ptr %56, i32 0, i32 3
  %58 = load ptr, ptr %57, align 8
  %59 = call ptr @ft_mem_realloc(ptr noundef %51, i64 noundef 1, i64 noundef %53, i64 noundef %55, ptr noundef %58, ptr noundef %7)
  %60 = load ptr, ptr %3, align 8
  %61 = getelementptr inbounds %struct.FT_StrokeBorderRec_, ptr %60, i32 0, i32 3
  store ptr %59, ptr %61, align 8
  %62 = load i32, ptr %7, align 4
  %63 = icmp ne i32 %62, 0
  br i1 %63, label %64, label %65

64:                                               ; preds = %50, %36
  br label %70

65:                                               ; preds = %50
  %66 = load i32, ptr %8, align 4
  %67 = load ptr, ptr %3, align 8
  %68 = getelementptr inbounds %struct.FT_StrokeBorderRec_, ptr %67, i32 0, i32 1
  store i32 %66, ptr %68, align 4
  br label %69

69:                                               ; preds = %65, %2
  br label %70

70:                                               ; preds = %69, %64
  %71 = load i32, ptr %7, align 4
  ret i32 %71
}

; Function Attrs: nounwind uwtable
define internal i32 @ft_stroke_border_lineto(ptr noundef %0, ptr noundef %1, i8 noundef zeroext %2) #0 {
  %4 = alloca i32, align 4
  %5 = alloca ptr, align 8
  %6 = alloca ptr, align 8
  %7 = alloca i8, align 1
  %8 = alloca i32, align 4
  %9 = alloca ptr, align 8
  %10 = alloca ptr, align 8
  store ptr %0, ptr %5, align 8
  store ptr %1, ptr %6, align 8
  store i8 %2, ptr %7, align 1
  store i32 0, ptr %8, align 4
  br label %11

11:                                               ; preds = %3
  br label %12

12:                                               ; preds = %11
  %13 = load ptr, ptr %5, align 8
  %14 = getelementptr inbounds %struct.FT_StrokeBorderRec_, ptr %13, i32 0, i32 4
  %15 = load i8, ptr %14, align 8
  %16 = icmp ne i8 %15, 0
  br i1 %16, label %17, label %28

17:                                               ; preds = %12
  %18 = load ptr, ptr %5, align 8
  %19 = getelementptr inbounds %struct.FT_StrokeBorderRec_, ptr %18, i32 0, i32 2
  %20 = load ptr, ptr %19, align 8
  %21 = load ptr, ptr %5, align 8
  %22 = getelementptr inbounds %struct.FT_StrokeBorderRec_, ptr %21, i32 0, i32 0
  %23 = load i32, ptr %22, align 8
  %24 = sub i32 %23, 1
  %25 = zext i32 %24 to i64
  %26 = getelementptr inbounds %struct.FT_Vector_, ptr %20, i64 %25
  %27 = load ptr, ptr %6, align 8
  call void @llvm.memcpy.p0.p0.i64(ptr align 8 %26, ptr align 8 %27, i64 16, i1 false)
  br label %138

28:                                               ; preds = %12
  %29 = load ptr, ptr %5, align 8
  %30 = getelementptr inbounds %struct.FT_StrokeBorderRec_, ptr %29, i32 0, i32 0
  %31 = load i32, ptr %30, align 8
  %32 = load ptr, ptr %5, align 8
  %33 = getelementptr inbounds %struct.FT_StrokeBorderRec_, ptr %32, i32 0, i32 5
  %34 = load i32, ptr %33, align 4
  %35 = icmp ugt i32 %31, %34
  br i1 %35, label %36, label %106

36:                                               ; preds = %28
  %37 = load ptr, ptr %5, align 8
  %38 = getelementptr inbounds %struct.FT_StrokeBorderRec_, ptr %37, i32 0, i32 2
  %39 = load ptr, ptr %38, align 8
  %40 = load ptr, ptr %5, align 8
  %41 = getelementptr inbounds %struct.FT_StrokeBorderRec_, ptr %40, i32 0, i32 0
  %42 = load i32, ptr %41, align 8
  %43 = sub i32 %42, 1
  %44 = zext i32 %43 to i64
  %45 = getelementptr inbounds %struct.FT_Vector_, ptr %39, i64 %44
  %46 = getelementptr inbounds %struct.FT_Vector_, ptr %45, i32 0, i32 0
  %47 = load i64, ptr %46, align 8
  %48 = load ptr, ptr %6, align 8
  %49 = getelementptr inbounds %struct.FT_Vector_, ptr %48, i32 0, i32 0
  %50 = load i64, ptr %49, align 8
  %51 = sub nsw i64 %47, %50
  %52 = icmp sgt i64 %51, -2
  br i1 %52, label %53, label %106

53:                                               ; preds = %36
  %54 = load ptr, ptr %5, align 8
  %55 = getelementptr inbounds %struct.FT_StrokeBorderRec_, ptr %54, i32 0, i32 2
  %56 = load ptr, ptr %55, align 8
  %57 = load ptr, ptr %5, align 8
  %58 = getelementptr inbounds %struct.FT_StrokeBorderRec_, ptr %57, i32 0, i32 0
  %59 = load i32, ptr %58, align 8
  %60 = sub i32 %59, 1
  %61 = zext i32 %60 to i64
  %62 = getelementptr inbounds %struct.FT_Vector_, ptr %56, i64 %61
  %63 = getelementptr inbounds %struct.FT_Vector_, ptr %62, i32 0, i32 0
  %64 = load i64, ptr %63, align 8
  %65 = load ptr, ptr %6, align 8
  %66 = getelementptr inbounds %struct.FT_Vector_, ptr %65, i32 0, i32 0
  %67 = load i64, ptr %66, align 8
  %68 = sub nsw i64 %64, %67
  %69 = icmp slt i64 %68, 2
  br i1 %69, label %70, label %106

70:                                               ; preds = %53
  %71 = load ptr, ptr %5, align 8
  %72 = getelementptr inbounds %struct.FT_StrokeBorderRec_, ptr %71, i32 0, i32 2
  %73 = load ptr, ptr %72, align 8
  %74 = load ptr, ptr %5, align 8
  %75 = getelementptr inbounds %struct.FT_StrokeBorderRec_, ptr %74, i32 0, i32 0
  %76 = load i32, ptr %75, align 8
  %77 = sub i32 %76, 1
  %78 = zext i32 %77 to i64
  %79 = getelementptr inbounds %struct.FT_Vector_, ptr %73, i64 %78
  %80 = getelementptr inbounds %struct.FT_Vector_, ptr %79, i32 0, i32 1
  %81 = load i64, ptr %80, align 8
  %82 = load ptr, ptr %6, align 8
  %83 = getelementptr inbounds %struct.FT_Vector_, ptr %82, i32 0, i32 1
  %84 = load i64, ptr %83, align 8
  %85 = sub nsw i64 %81, %84
  %86 = icmp sgt i64 %85, -2
  br i1 %86, label %87, label %106

87:                                               ; preds = %70
  %88 = load ptr, ptr %5, align 8
  %89 = getelementptr inbounds %struct.FT_StrokeBorderRec_, ptr %88, i32 0, i32 2
  %90 = load ptr, ptr %89, align 8
  %91 = load ptr, ptr %5, align 8
  %92 = getelementptr inbounds %struct.FT_StrokeBorderRec_, ptr %91, i32 0, i32 0
  %93 = load i32, ptr %92, align 8
  %94 = sub i32 %93, 1
  %95 = zext i32 %94 to i64
  %96 = getelementptr inbounds %struct.FT_Vector_, ptr %90, i64 %95
  %97 = getelementptr inbounds %struct.FT_Vector_, ptr %96, i32 0, i32 1
  %98 = load i64, ptr %97, align 8
  %99 = load ptr, ptr %6, align 8
  %100 = getelementptr inbounds %struct.FT_Vector_, ptr %99, i32 0, i32 1
  %101 = load i64, ptr %100, align 8
  %102 = sub nsw i64 %98, %101
  %103 = icmp slt i64 %102, 2
  br i1 %103, label %104, label %106

104:                                              ; preds = %87
  %105 = load i32, ptr %8, align 4
  store i32 %105, ptr %4, align 4
  br label %143

106:                                              ; preds = %87, %70, %53, %36, %28
  %107 = load ptr, ptr %5, align 8
  %108 = call i32 @ft_stroke_border_grow(ptr noundef %107, i32 noundef 1)
  store i32 %108, ptr %8, align 4
  %109 = load i32, ptr %8, align 4
  %110 = icmp ne i32 %109, 0
  br i1 %110, label %137, label %111

111:                                              ; preds = %106
  %112 = load ptr, ptr %5, align 8
  %113 = getelementptr inbounds %struct.FT_StrokeBorderRec_, ptr %112, i32 0, i32 2
  %114 = load ptr, ptr %113, align 8
  %115 = load ptr, ptr %5, align 8
  %116 = getelementptr inbounds %struct.FT_StrokeBorderRec_, ptr %115, i32 0, i32 0
  %117 = load i32, ptr %116, align 8
  %118 = zext i32 %117 to i64
  %119 = getelementptr inbounds %struct.FT_Vector_, ptr %114, i64 %118
  store ptr %119, ptr %9, align 8
  %120 = load ptr, ptr %5, align 8
  %121 = getelementptr inbounds %struct.FT_StrokeBorderRec_, ptr %120, i32 0, i32 3
  %122 = load ptr, ptr %121, align 8
  %123 = load ptr, ptr %5, align 8
  %124 = getelementptr inbounds %struct.FT_StrokeBorderRec_, ptr %123, i32 0, i32 0
  %125 = load i32, ptr %124, align 8
  %126 = zext i32 %125 to i64
  %127 = getelementptr inbounds i8, ptr %122, i64 %126
  store ptr %127, ptr %10, align 8
  %128 = load ptr, ptr %9, align 8
  %129 = getelementptr inbounds %struct.FT_Vector_, ptr %128, i64 0
  %130 = load ptr, ptr %6, align 8
  call void @llvm.memcpy.p0.p0.i64(ptr align 8 %129, ptr align 8 %130, i64 16, i1 false)
  %131 = load ptr, ptr %10, align 8
  %132 = getelementptr inbounds i8, ptr %131, i64 0
  store i8 1, ptr %132, align 1
  %133 = load ptr, ptr %5, align 8
  %134 = getelementptr inbounds %struct.FT_StrokeBorderRec_, ptr %133, i32 0, i32 0
  %135 = load i32, ptr %134, align 8
  %136 = add i32 %135, 1
  store i32 %136, ptr %134, align 8
  br label %137

137:                                              ; preds = %111, %106
  br label %138

138:                                              ; preds = %137, %17
  %139 = load i8, ptr %7, align 1
  %140 = load ptr, ptr %5, align 8
  %141 = getelementptr inbounds %struct.FT_StrokeBorderRec_, ptr %140, i32 0, i32 4
  store i8 %139, ptr %141, align 8
  %142 = load i32, ptr %8, align 4
  store i32 %142, ptr %4, align 4
  br label %143

143:                                              ; preds = %138, %104
  %144 = load i32, ptr %4, align 4
  ret i32 %144
}