; Function Attrs: nounwind uwtable
define internal fastcc i32 @ft_stroke_border_lineto(ptr noundef nonnull captures(none) %0, ptr noundef nonnull readonly captures(none) %1, i8 noundef zeroext range(i8 0, 2) %2) unnamed_addr #0 {
  %4 = alloca i32, align 4
  %5 = getelementptr inbounds nuw i8, ptr %0, i64 24
  %6 = load i8, ptr %5, align 8
  %.not = icmp eq i8 %6, 0
  br i1 %.not, label %14, label %7

7:                                                ; preds = %3
  %8 = getelementptr inbounds nuw i8, ptr %0, i64 8
  %9 = load ptr, ptr %8, align 8
  %10 = load i32, ptr %0, align 8
  %11 = add i32 %10, -1
  %12 = zext i32 %11 to i64
  %13 = getelementptr inbounds nuw %struct.FT_Vector_, ptr %9, i64 %12
  tail call void @llvm.memcpy.p0.p0.i64(ptr noundef nonnull align 8 dereferenceable(16) %13, ptr noundef nonnull align 8 dereferenceable(16) %1, i64 16, i1 false)
  br label %73

14:                                               ; preds = %3
  %15 = load i32, ptr %0, align 8
  %16 = getelementptr inbounds nuw i8, ptr %0, i64 28
  %17 = load i32, ptr %16, align 4
  %18 = icmp ugt i32 %15, %17
  br i1 %18, label %19, label %36

19:                                               ; preds = %14
  %20 = getelementptr inbounds nuw i8, ptr %0, i64 8
  %21 = load ptr, ptr %20, align 8
  %22 = add i32 %15, -1
  %23 = zext i32 %22 to i64
  %24 = getelementptr inbounds nuw %struct.FT_Vector_, ptr %21, i64 %23
  %25 = load i64, ptr %24, align 8
  %26 = load i64, ptr %1, align 8
  %27 = add i64 %25, 1
  %28 = sub i64 %27, %26
  %or.cond = icmp ult i64 %28, 3
  br i1 %or.cond, label %29, label %36

29:                                               ; preds = %19
  %30 = getelementptr inbounds nuw i8, ptr %24, i64 8
  %31 = load i64, ptr %30, align 8
  %32 = getelementptr inbounds nuw i8, ptr %1, i64 8
  %33 = load i64, ptr %32, align 8
  %34 = add i64 %31, 1
  %35 = sub i64 %34, %33
  %or.cond38 = icmp ult i64 %35, 3
  br i1 %or.cond38, label %74, label %36

36:                                               ; preds = %29, %19, %14
  call void @llvm.lifetime.start.p0(i64 4, ptr nonnull %4)
  %37 = getelementptr inbounds nuw i8, ptr %0, i64 4
  %38 = load i32, ptr %37, align 4
  %39 = add i32 %15, 1
  store i32 0, ptr %4, align 4
  %40 = icmp ugt i32 %39, %38
  br i1 %40, label %41, label %._crit_edge

._crit_edge:                                      ; preds = %36
  %.phi.trans.insert = getelementptr inbounds nuw i8, ptr %0, i64 16
  %.pre41 = load ptr, ptr %.phi.trans.insert, align 8
  br label %63

41:                                               ; preds = %36
  %42 = getelementptr inbounds nuw i8, ptr %0, i64 32
  %43 = load ptr, ptr %42, align 8
  br label %44

44:                                               ; preds = %44, %41
  %.025.i = phi i32 [ %38, %41 ], [ %47, %44 ]
  %45 = lshr i32 %.025.i, 1
  %46 = add i32 %.025.i, 16
  %47 = add i32 %46, %45
  %48 = icmp ult i32 %47, %39
  br i1 %48, label %44, label %49, !llvm.loop !6

49:                                               ; preds = %44
  %50 = zext i32 %38 to i64
  %51 = zext i32 %47 to i64
  %52 = getelementptr inbounds nuw i8, ptr %0, i64 8
  %53 = load ptr, ptr %52, align 8
  %54 = call ptr @ft_mem_realloc(ptr noundef %43, i64 noundef 16, i64 noundef %50, i64 noundef %51, ptr noundef %53, ptr noundef nonnull %4) #11
  store ptr %54, ptr %52, align 8
  %55 = load i32, ptr %4, align 4
  %.not.i = icmp eq i32 %55, 0
  br i1 %.not.i, label %56, label %ft_stroke_border_grow.exit

56:                                               ; preds = %49
  %57 = getelementptr inbounds nuw i8, ptr %0, i64 16
  %58 = load ptr, ptr %57, align 8
  %59 = call ptr @ft_mem_realloc(ptr noundef %43, i64 noundef 1, i64 noundef %50, i64 noundef %51, ptr noundef %58, ptr noundef nonnull %4) #11
  store ptr %59, ptr %57, align 8
  %60 = load i32, ptr %4, align 4
  %.not24.i = icmp eq i32 %60, 0
  br i1 %.not24.i, label %61, label %ft_stroke_border_grow.exit

61:                                               ; preds = %56
  store i32 %47, ptr %37, align 4
  %.pre = load i32, ptr %0, align 8
  br label %63

ft_stroke_border_grow.exit:                       ; preds = %49, %56
  %62 = phi i32 [ %55, %49 ], [ %60, %56 ]
  call void @llvm.lifetime.end.p0(i64 4, ptr nonnull %4)
  br label %73

63:                                               ; preds = %._crit_edge, %61
  %64 = phi ptr [ %.pre41, %._crit_edge ], [ %59, %61 ]
  %65 = phi i32 [ %15, %._crit_edge ], [ %.pre, %61 ]
  call void @llvm.lifetime.end.p0(i64 4, ptr nonnull %4)
  %66 = getelementptr inbounds nuw i8, ptr %0, i64 8
  %67 = load ptr, ptr %66, align 8
  %68 = zext i32 %65 to i64
  %69 = getelementptr inbounds nuw %struct.FT_Vector_, ptr %67, i64 %68
  %70 = getelementptr inbounds nuw i8, ptr %64, i64 %68
  call void @llvm.memcpy.p0.p0.i64(ptr noundef nonnull align 8 dereferenceable(16) %69, ptr noundef nonnull align 8 dereferenceable(16) %1, i64 16, i1 false)
  store i8 1, ptr %70, align 1
  %71 = load i32, ptr %0, align 8
  %72 = add i32 %71, 1
  store i32 %72, ptr %0, align 8
  br label %73

73:                                               ; preds = %ft_stroke_border_grow.exit, %63, %7
  %.032 = phi i32 [ 0, %7 ], [ %62, %ft_stroke_border_grow.exit ], [ 0, %63 ]
  store i8 %2, ptr %5, align 8
  br label %74

74:                                               ; preds = %29, %73
  %.0 = phi i32 [ %.032, %73 ], [ 0, %29 ]
  ret i32 %.0
}